; Function Attrs: mustprogress nounwind
define internal noundef ptr @_ZN3tbb6detail2d213function_taskIZN4moldL15new_shared_fileINS3_6X86_64EEEPNS3_10SharedFileIT_EERNS3_7ContextIS7_EERNS3_13ReaderContextEPNS3_10MappedFileEEUlvE_E7executeERNS0_2d114execution_dataE(ptr noundef nonnull align 64 dereferenceable(112) %0, ptr noundef nonnull align 8 dereferenceable(12) %1) unnamed_addr #4 align 2 {
  %3 = getelementptr inbounds nuw i8, ptr %0, i64 96
  %.val = load ptr, ptr %3, align 32, !tbaa !939
  %4 = getelementptr inbounds nuw i8, ptr %0, i64 104
  %.val3 = load ptr, ptr %4, align 8, !tbaa !941
  tail call void @_ZN4mold10SharedFileINS_6X86_64EE5parseERNS_7ContextIS1_EE(ptr noundef nonnull align 8 dereferenceable(440) %.val, ptr noundef nonnull align 8 dereferenceable(4520) %.val3) #16
  %5 = getelementptr inbounds nuw i8, ptr %0, i64 88
  %6 = load i64, ptr %5, align 8, !tbaa !789
  %7 = inttoptr i64 %6 to ptr
  %8 = load ptr, ptr %0, align 64, !tbaa !305
  %9 = load ptr, ptr %8, align 8
  tail call void %9(ptr noundef nonnull align 64 dereferenceable(96) %0) #16
  tail call void @_ZN3tbb6detail2r110deallocateERNS0_2d117small_object_poolEPvmRKNS2_14execution_dataE(ptr noundef nonnull align 1 dereferenceable(1) %7, ptr noundef nonnull align 64 dereferenceable(96) %0, i64 noundef 128, ptr noundef nonnull align 8 dereferenceable(12) %1) #16
  ret ptr null
}